; Function Attrs: mustprogress uwtable
define noundef ptr @_ZN4cvc58internal7Printer10getPrinterENS0_8LanguageE(i32 noundef %lang) local_unnamed_addr #4 align 2 personality ptr @__gxx_personality_v0 {
entry:
  %ref.tmp = alloca %"class.std::unique_ptr", align 8
  %cmp = icmp eq i32 %lang, -1
  %spec.store.select = select i1 %cmp, i32 0, i32 %lang
  %conv = sext i32 %spec.store.select to i64
  %arrayidx = getelementptr inbounds [3 x %"class.std::unique_ptr"], ptr @_ZN4cvc58internal7Printer10d_printersE, i64 0, i64 %conv
  %0 = load ptr, ptr %arrayidx, align 8
  %cmp.i.not.i = icmp eq ptr %0, null
  br i1 %cmp.i.not.i, label %if.then1, label %if.end5

if.then1:                                         ; preds = %entry
  call void @_ZN4cvc58internal7Printer11makePrinterENS0_8LanguageE(ptr nonnull sret(%"class.std::unique_ptr") align 8 %ref.tmp, i32 noundef %spec.store.select)
  %1 = load ptr, ptr %ref.tmp, align 8
  %2 = load ptr, ptr %arrayidx, align 8
  store ptr %1, ptr %arrayidx, align 8
  %tobool.not.i.i.i.i = icmp eq ptr %2, null
  br i1 %tobool.not.i.i.i.i, label %if.end5, label %_ZNKSt14default_deleteIN4cvc58internal7PrinterEEclEPS2_.exit.i.i.i.i

_ZNKSt14default_deleteIN4cvc58internal7PrinterEEclEPS2_.exit.i.i.i.i: ; preds = %if.then1
  %vtable.i.i.i.i.i = load ptr, ptr %2, align 8
  %vfn.i.i.i.i.i = getelementptr inbounds i8, ptr %vtable.i.i.i.i.i, i64 8
  %3 = load ptr, ptr %vfn.i.i.i.i.i, align 8
  tail call void %3(ptr noundef nonnull align 8 dereferenceable(8) %2) #16
  %.pre.pre = load ptr, ptr %arrayidx, align 8
  br label %if.end5

if.end5:                                          ; preds = %if.then1, %_ZNKSt14default_deleteIN4cvc58internal7PrinterEEclEPS2_.exit.i.i.i.i, %entry
  %4 = phi ptr [ %0, %entry ], [ %.pre.pre, %_ZNKSt14default_deleteIN4cvc58internal7PrinterEEclEPS2_.exit.i.i.i.i ], [ %1, %if.then1 ]
  ret ptr %4
}